; Function Attrs: mustprogress uwtable
define hidden void @_ZNK5arith6solver9get_valueEi(ptr noalias sret(%class.rational) align 8 %agg.result, ptr noundef nonnull align 8 dereferenceable(1144) %this, i32 noundef %v) local_unnamed_addr #3 align 2 {
entry:
  %ref.tmp = alloca %"class.lp::tv", align 4
  %cmp.not.i = icmp eq i32 %v, -1
  br i1 %cmp.not.i, label %cond.false, label %_ZNK5arith6solver17is_registered_varEi.exit

_ZNK5arith6solver17is_registered_varEi.exit:      ; preds = %entry
  %m_solver.i.i = getelementptr inbounds i8, ptr %this, i64 592
  %0 = load ptr, ptr %m_solver.i.i, align 8
  %call2.i = tail call noundef zeroext i1 @_ZNK2lp10lar_solver16external_is_usedEj(ptr noundef nonnull align 8 dereferenceable(1888) %0, i32 noundef %v)
  br i1 %call2.i, label %cond.true, label %cond.false

cond.true:                                        ; preds = %_ZNK5arith6solver17is_registered_varEi.exit
  %1 = load ptr, ptr %m_solver.i.i, align 8
  %call3 = tail call i32 @_ZNK5arith6solver6get_tvEi(ptr noundef nonnull align 8 dereferenceable(1144) %this, i32 noundef %v)
  store i32 %call3, ptr %ref.tmp, align 4
  call void @_ZNK2lp10lar_solver12get_tv_valueERKNS_2tvE(ptr sret(%class.rational) align 8 %agg.result, ptr noundef nonnull align 8 dereferenceable(1888) %1, ptr noundef nonnull align 4 dereferenceable(4) %ref.tmp)
  br label %cond.end

cond.false:                                       ; preds = %entry, %_ZNK5arith6solver17is_registered_varEi.exit
  store i32 0, ptr %agg.result, align 8
  %m_kind.i.i.i = getelementptr inbounds i8, ptr %agg.result, i64 4
  %bf.load.i.i.i = load i8, ptr %m_kind.i.i.i, align 4
  %bf.clear3.i.i.i = and i8 %bf.load.i.i.i, -4
  store i8 %bf.clear3.i.i.i, ptr %m_kind.i.i.i, align 4
  %m_ptr.i.i.i = getelementptr inbounds i8, ptr %agg.result, i64 8
  store ptr null, ptr %m_ptr.i.i.i, align 8
  %m_den.i.i = getelementptr inbounds i8, ptr %agg.result, i64 16
  store i32 1, ptr %m_den.i.i, align 8
  %m_kind.i1.i.i = getelementptr inbounds i8, ptr %agg.result, i64 20
  %bf.load.i2.i.i = load i8, ptr %m_kind.i1.i.i, align 4
  %bf.clear3.i3.i.i = and i8 %bf.load.i2.i.i, -4
  store i8 %bf.clear3.i3.i.i, ptr %m_kind.i1.i.i, align 4
  %m_ptr.i4.i.i = getelementptr inbounds i8, ptr %agg.result, i64 24
  store ptr null, ptr %m_ptr.i4.i.i, align 8
  %2 = load ptr, ptr @_ZN8rational13g_mpq_managerE, align 8
  %bf.load.i.i.i.i.i = load i8, ptr getelementptr inbounds (%class.rational, ptr @_ZN8rational6m_zeroE, i64 0, i32 0, i32 0, i32 1), align 4
  %bf.clear.i.i.i.i.i = and i8 %bf.load.i.i.i.i.i, 1
  %cmp.i.i.i.i.i = icmp eq i8 %bf.clear.i.i.i.i.i, 0
  br i1 %cmp.i.i.i.i.i, label %if.then.i.i.i.i, label %if.else.i.i.i.i

if.then.i.i.i.i:                                  ; preds = %cond.false
  %3 = load i32, ptr @_ZN8rational6m_zeroE, align 8
  store i32 %3, ptr %agg.result, align 8
  store i8 %bf.clear3.i.i.i, ptr %m_kind.i.i.i, align 4
  br label %_ZN11mpq_managerILb1EE3setER3mpzRKS1_.exit.i.i

if.else.i.i.i.i:                                  ; preds = %cond.false
  tail call void @_ZN11mpz_managerILb1EE7big_setER3mpzRKS1_(ptr noundef nonnull align 8 dereferenceable(600) %2, ptr noundef nonnull align 8 dereferenceable(16) %agg.result, ptr noundef nonnull align 8 dereferenceable(16) @_ZN8rational6m_zeroE)
  br label %_ZN11mpq_managerILb1EE3setER3mpzRKS1_.exit.i.i

_ZN11mpq_managerILb1EE3setER3mpzRKS1_.exit.i.i:   ; preds = %if.else.i.i.i.i, %if.then.i.i.i.i
  %bf.load.i.i.i4.i.i = load i8, ptr getelementptr inbounds (%class.rational, ptr @_ZN8rational6m_zeroE, i64 0, i32 0, i32 1, i32 1), align 4
  %bf.clear.i.i.i5.i.i = and i8 %bf.load.i.i.i4.i.i, 1
  %cmp.i.i.i6.i.i = icmp eq i8 %bf.clear.i.i.i5.i.i, 0
  br i1 %cmp.i.i.i6.i.i, label %if.then.i.i8.i.i, label %if.else.i.i7.i.i

if.then.i.i8.i.i:                                 ; preds = %_ZN11mpq_managerILb1EE3setER3mpzRKS1_.exit.i.i
  %4 = load i32, ptr getelementptr inbounds (%class.rational, ptr @_ZN8rational6m_zeroE, i64 0, i32 0, i32 1, i32 0), align 8
  store i32 %4, ptr %m_den.i.i, align 8
  %bf.load.i.i10.i.i = load i8, ptr %m_kind.i1.i.i, align 4
  %bf.clear.i.i11.i.i = and i8 %bf.load.i.i10.i.i, -2
  store i8 %bf.clear.i.i11.i.i, ptr %m_kind.i1.i.i, align 4
  br label %cond.end

if.else.i.i7.i.i:                                 ; preds = %_ZN11mpq_managerILb1EE3setER3mpzRKS1_.exit.i.i
  tail call void @_ZN11mpz_managerILb1EE7big_setER3mpzRKS1_(ptr noundef nonnull align 8 dereferenceable(600) %2, ptr noundef nonnull align 8 dereferenceable(16) %m_den.i.i, ptr noundef nonnull align 8 dereferenceable(16) getelementptr inbounds (%class.rational, ptr @_ZN8rational6m_zeroE, i64 0, i32 0, i32 1, i32 0))
  br label %cond.end

cond.end:                                         ; preds = %if.else.i.i7.i.i, %if.then.i.i8.i.i, %cond.true
  ret void
}